target datalayout = "e-m:e-p270:32:32-p271:32:32-p272:64:64-i64:64-i128:128-f80:128-n8:16:32:64-S128"
target triple = "x86_64-pc-linux-gnu"

@hf_zbee_zcl_rssi_location_target_add = internal global i32 0, align 4
@hf_zbee_zcl_rssi_location_header = internal global i32 0, align 4
@hf_zbee_zcl_rssi_location_number_responses = internal global i32 0, align 4
@ett_zbee_zcl_rssi_location_header = internal global i32 0, align 4

; Function Attrs: null_pointer_is_valid sspstrong uwtable
define internal void @dissect_zcl_rssi_location_get_location_data(ptr noundef %0, ptr noundef %1, ptr noundef %2) #0 {
  %4 = alloca ptr, align 8
  %5 = alloca ptr, align 8
  %6 = alloca ptr, align 8
  %7 = alloca i8, align 1
  store ptr %0, ptr %4, align 8
  store ptr %1, ptr %5, align 8
  store ptr %2, ptr %6, align 8
  call void @llvm.lifetime.start.p0(i64 1, ptr %7) #7
  %8 = load ptr, ptr %4, align 8
  %9 = load ptr, ptr %6, align 8
  %10 = load i32, ptr %9, align 4
  %11 = call zeroext i8 @tvb_get_uint8(ptr noundef %8, i32 noundef %10)
  store i8 %11, ptr %7, align 1
  %12 = load ptr, ptr %5, align 8
  %13 = load ptr, ptr %4, align 8
  %14 = load ptr, ptr %6, align 8
  %15 = load i32, ptr %14, align 4
  %16 = load i32, ptr @hf_zbee_zcl_rssi_location_header, align 4
  %17 = load i32, ptr @ett_zbee_zcl_rssi_location_header, align 4
  %18 = call ptr @proto_tree_add_bitmask(ptr noundef %12, ptr noundef %13, i32 noundef %15, i32 noundef %16, i32 noundef %17, ptr noundef @dissect_zcl_rssi_location_get_location_data.location_header_fields, i32 noundef -2147483648)
  %19 = load ptr, ptr %6, align 8
  %20 = load i32, ptr %19, align 4
  %21 = add i32 %20, 1
  store i32 %21, ptr %19, align 4
  %22 = load ptr, ptr %5, align 8
  %23 = load i32, ptr @hf_zbee_zcl_rssi_location_number_responses, align 4
  %24 = load ptr, ptr %4, align 8
  %25 = load ptr, ptr %6, align 8
  %26 = load i32, ptr %25, align 4
  %27 = call ptr @proto_tree_add_item(ptr noundef %22, i32 noundef %23, ptr noundef %24, i32 noundef %26, i32 noundef 1, i32 noundef -2147483648)
  %28 = load ptr, ptr %6, align 8
  %29 = load i32, ptr %28, align 4
  %30 = add i32 %29, 1
  store i32 %30, ptr %28, align 4
  %31 = load i8, ptr %7, align 1
  %32 = zext i8 %31 to i32
  %33 = and i32 %32, 4
  %34 = icmp ne i32 %33, 0
  br i1 %34, label %35, label %45

35:                                               ; preds = %3
  %36 = load ptr, ptr %5, align 8
  %37 = load i32, ptr @hf_zbee_zcl_rssi_location_target_add, align 4
  %38 = load ptr, ptr %4, align 8
  %39 = load ptr, ptr %6, align 8
  %40 = load i32, ptr %39, align 4
  %41 = call ptr @proto_tree_add_item(ptr noundef %36, i32 noundef %37, ptr noundef %38, i32 noundef %40, i32 noundef 8, i32 noundef -2147483648)
  %42 = load ptr, ptr %6, align 8
  %43 = load i32, ptr %42, align 4
  %44 = add i32 %43, 8
  store i32 %44, ptr %42, align 4
  br label %45

45:                                               ; preds = %35, %3
  call void @llvm.lifetime.end.p0(i64 1, ptr %7) #7
  ret void
}