; Function Attrs: null_pointer_is_valid sspstrong uwtable
define internal fastcc void @dissect_zcl_rssi_location_get_location_data(ptr noundef %0, ptr noundef %1, ptr noundef captures(none) %2) unnamed_addr #0 {
  %4 = load i32, ptr %2, align 4
  %5 = tail call zeroext i8 @tvb_get_uint8(ptr noundef %0, i32 noundef %4)
  %6 = load i32, ptr %2, align 4
  %7 = load i32, ptr @hf_zbee_zcl_rssi_location_header, align 4
  %8 = load i32, ptr @ett_zbee_zcl_rssi_location_header, align 4
  %9 = tail call ptr @proto_tree_add_bitmask(ptr noundef %1, ptr noundef %0, i32 noundef %6, i32 noundef %7, i32 noundef %8, ptr noundef nonnull @dissect_zcl_rssi_location_get_location_data.location_header_fields, i32 noundef -2147483648)
  %10 = load i32, ptr %2, align 4
  %11 = add i32 %10, 1
  store i32 %11, ptr %2, align 4
  %12 = load i32, ptr @hf_zbee_zcl_rssi_location_number_responses, align 4
  %13 = tail call ptr @proto_tree_add_item(ptr noundef %1, i32 noundef %12, ptr noundef %0, i32 noundef %11, i32 noundef 1, i32 noundef -2147483648)
  %14 = load i32, ptr %2, align 4
  %15 = add i32 %14, 1
  store i32 %15, ptr %2, align 4
  %16 = and i8 %5, 4
  %.not = icmp eq i8 %16, 0
  br i1 %.not, label %22, label %17

17:                                               ; preds = %3
  %18 = load i32, ptr @hf_zbee_zcl_rssi_location_target_add, align 4
  %19 = tail call ptr @proto_tree_add_item(ptr noundef %1, i32 noundef %18, ptr noundef %0, i32 noundef %15, i32 noundef 8, i32 noundef -2147483648)
  %20 = load i32, ptr %2, align 4
  %21 = add i32 %20, 8
  store i32 %21, ptr %2, align 4
  br label %22

22:                                               ; preds = %17, %3
  ret void
}